; Function Attrs: mustprogress uwtable
define void @_ZNK19OpenColorIO_v2_4dev12CPUProcessor9applyRGBAEPf(ptr nocapture noundef nonnull readonly align 8 dereferenceable(8) %this, ptr noundef %pixel) local_unnamed_addr #3 align 2 {
entry:
  %0 = load ptr, ptr %this, align 8
  %1 = load ptr, ptr %0, align 8
  %vtable.i = load ptr, ptr %1, align 8
  %vfn.i = getelementptr inbounds i8, ptr %vtable.i, i64 16
  %2 = load ptr, ptr %vfn.i, align 8
  tail call void %2(ptr noundef nonnull align 8 dereferenceable(8) %1, ptr noundef %pixel, ptr noundef %pixel, i64 noundef 1)
  %m_cpuOps.i = getelementptr inbounds i8, ptr %0, i64 16
  %_M_finish.i.i = getelementptr inbounds i8, ptr %0, i64 24
  %3 = load ptr, ptr %_M_finish.i.i, align 8
  %4 = load ptr, ptr %m_cpuOps.i, align 8
  %cmp8.not.i = icmp eq ptr %3, %4
  br i1 %cmp8.not.i, label %_ZNK19OpenColorIO_v2_4dev12CPUProcessor4Impl9applyRGBAEPf.exit, label %for.body.preheader.i

for.body.preheader.i:                             ; preds = %entry
  %sub.ptr.lhs.cast.i.i = ptrtoint ptr %3 to i64
  %sub.ptr.rhs.cast.i.i = ptrtoint ptr %4 to i64
  %sub.ptr.sub.i.i = sub i64 %sub.ptr.lhs.cast.i.i, %sub.ptr.rhs.cast.i.i
  %sub.ptr.div.i.i = ashr exact i64 %sub.ptr.sub.i.i, 4
  %umax.i = tail call i64 @llvm.umax.i64(i64 %sub.ptr.div.i.i, i64 1)
  br label %for.body.i

for.body.i:                                       ; preds = %for.body.i, %for.body.preheader.i
  %i.09.i = phi i64 [ %inc.i, %for.body.i ], [ 0, %for.body.preheader.i ]
  %5 = load ptr, ptr %m_cpuOps.i, align 8
  %add.ptr.i.i = getelementptr inbounds %"class.std::shared_ptr", ptr %5, i64 %i.09.i
  %6 = load ptr, ptr %add.ptr.i.i, align 8
  %vtable6.i = load ptr, ptr %6, align 8
  %vfn7.i = getelementptr inbounds i8, ptr %vtable6.i, i64 16
  %7 = load ptr, ptr %vfn7.i, align 8
  tail call void %7(ptr noundef nonnull align 8 dereferenceable(8) %6, ptr noundef %pixel, ptr noundef %pixel, i64 noundef 1)
  %inc.i = add nuw i64 %i.09.i, 1
  %exitcond.not.i = icmp eq i64 %inc.i, %umax.i
  br i1 %exitcond.not.i, label %_ZNK19OpenColorIO_v2_4dev12CPUProcessor4Impl9applyRGBAEPf.exit, label %for.body.i, !llvm.loop !142

_ZNK19OpenColorIO_v2_4dev12CPUProcessor4Impl9applyRGBAEPf.exit: ; preds = %for.body.i, %entry
  %m_outBitDepthOp.i = getelementptr inbounds i8, ptr %0, i64 40
  %8 = load ptr, ptr %m_outBitDepthOp.i, align 8
  %vtable9.i = load ptr, ptr %8, align 8
  %vfn10.i = getelementptr inbounds i8, ptr %vtable9.i, i64 16
  %9 = load ptr, ptr %vfn10.i, align 8
  tail call void %9(ptr noundef nonnull align 8 dereferenceable(8) %8, ptr noundef %pixel, ptr noundef %pixel, i64 noundef 1)
  ret void
}